target datalayout = "e-m:e-p270:32:32-p271:32:32-p272:64:64-i64:64-i128:128-f80:128-n8:16:32:64-S128"
target triple = "x86_64-pc-linux-gnu"

%struct.DCAXllDecoder = type { ptr, %struct.GetBitContext, i32, i32, i32, i32, i32, i32, i32, i32, i32, i32, i32, i32, [8 x i8], [3 x %struct.DCAXllChSet], ptr, i32, i32, i32, i32, i32, i32, ptr, i32, i32, ptr, i32, i32, i32, [32 x ptr], [8 x i8] }
%struct.GetBitContext = type { ptr, ptr, i32, i32, i32 }
%struct.DCAXllChSet = type { i32, i32, i32, i32, i32, i32, i32, i32, i32, i32, i32, [128 x i32], [16 x i32], [16 x i32], i32, [8 x i32], i32, i32, [2 x %struct.DCAXllBand], i32, [8 x i32], [8 x i32], [8 x i32], [8 x i32], [8 x i32], [4 x i8], [8 x [8 x i32]], [3 x i32], [3 x ptr], [8 x i8] }
%struct.DCAXllBand = type { i32, [8 x i32], [4 x i32], [8 x i32], i32, [8 x i32], [8 x [16 x i32]], i32, i32, [8 x i32], [8 x i32], [8 x ptr], [8 x ptr] }

; Function Attrs: cold nounwind optsize uwtable
define internal void @chs_clear_band_data(ptr noundef %0, ptr noundef %1, i32 noundef %2, i32 noundef %3) #2 {
  %5 = alloca ptr, align 8
  %6 = alloca ptr, align 8
  %7 = alloca i32, align 4
  %8 = alloca i32, align 4
  %9 = alloca ptr, align 8
  %10 = alloca i32, align 4
  %11 = alloca i32, align 4
  %12 = alloca i32, align 4
  store ptr %0, ptr %5, align 8, !tbaa !4
  store ptr %1, ptr %6, align 8, !tbaa !55
  store i32 %2, ptr %7, align 4, !tbaa !25
  store i32 %3, ptr %8, align 4, !tbaa !25
  call void @llvm.lifetime.start.p0(i64 8, ptr %9) #10
  %13 = load ptr, ptr %6, align 8, !tbaa !55
  %14 = getelementptr inbounds nuw %struct.DCAXllChSet, ptr %13, i32 0, i32 18
  %15 = load i32, ptr %7, align 4, !tbaa !25
  %16 = sext i32 %15 to i64
  %17 = getelementptr inbounds [2 x %struct.DCAXllBand], ptr %14, i64 0, i64 %16
  store ptr %17, ptr %9, align 8, !tbaa !124
  call void @llvm.lifetime.start.p0(i64 4, ptr %10) #10
  call void @llvm.lifetime.start.p0(i64 4, ptr %11) #10
  call void @llvm.lifetime.start.p0(i64 4, ptr %12) #10
  %18 = load i32, ptr %8, align 4, !tbaa !25
  %19 = icmp slt i32 %18, 0
  br i1 %19, label %20, label %24

20:                                               ; preds = %4
  store i32 0, ptr %11, align 4, !tbaa !25
  %21 = load ptr, ptr %5, align 8, !tbaa !4
  %22 = getelementptr inbounds nuw %struct.DCAXllDecoder, ptr %21, i32 0, i32 8
  %23 = load i32, ptr %22, align 16, !tbaa !104
  store i32 %23, ptr %12, align 4, !tbaa !25
  br label %33

24:                                               ; preds = %4
  %25 = load i32, ptr %8, align 4, !tbaa !25
  %26 = load ptr, ptr %5, align 8, !tbaa !4
  %27 = getelementptr inbounds nuw %struct.DCAXllDecoder, ptr %26, i32 0, i32 6
  %28 = load i32, ptr %27, align 8, !tbaa !166
  %29 = mul nsw i32 %25, %28
  store i32 %29, ptr %11, align 4, !tbaa !25
  %30 = load ptr, ptr %5, align 8, !tbaa !4
  %31 = getelementptr inbounds nuw %struct.DCAXllDecoder, ptr %30, i32 0, i32 6
  %32 = load i32, ptr %31, align 8, !tbaa !166
  store i32 %32, ptr %12, align 4, !tbaa !25
  br label %33

33:                                               ; preds = %24, %20
  store i32 0, ptr %10, align 4, !tbaa !25
  br label %34

34:                                               ; preds = %71, %33
  %35 = load i32, ptr %10, align 4, !tbaa !25
  %36 = load ptr, ptr %6, align 8, !tbaa !55
  %37 = getelementptr inbounds nuw %struct.DCAXllChSet, ptr %36, i32 0, i32 0
  %38 = load i32, ptr %37, align 16, !tbaa !80
  %39 = icmp slt i32 %35, %38
  br i1 %39, label %40, label %74

40:                                               ; preds = %34
  %41 = load ptr, ptr %9, align 8, !tbaa !124
  %42 = getelementptr inbounds nuw %struct.DCAXllBand, ptr %41, i32 0, i32 11
  %43 = load i32, ptr %10, align 4, !tbaa !25
  %44 = sext i32 %43 to i64
  %45 = getelementptr inbounds [8 x ptr], ptr %42, i64 0, i64 %44
  %46 = load ptr, ptr %45, align 8, !tbaa !92
  %47 = load i32, ptr %11, align 4, !tbaa !25
  %48 = sext i32 %47 to i64
  %49 = getelementptr inbounds i32, ptr %46, i64 %48
  %50 = load i32, ptr %12, align 4, !tbaa !25
  %51 = sext i32 %50 to i64
  %52 = mul i64 %51, 4
  call void @llvm.memset.p0.i64(ptr align 4 %49, i8 0, i64 %52, i1 false)
  %53 = load ptr, ptr %9, align 8, !tbaa !124
  %54 = getelementptr inbounds nuw %struct.DCAXllBand, ptr %53, i32 0, i32 8
  %55 = load i32, ptr %54, align 4, !tbaa !205
  %56 = icmp ne i32 %55, 0
  br i1 %56, label %57, label %70

57:                                               ; preds = %40
  %58 = load ptr, ptr %9, align 8, !tbaa !124
  %59 = getelementptr inbounds nuw %struct.DCAXllBand, ptr %58, i32 0, i32 12
  %60 = load i32, ptr %10, align 4, !tbaa !25
  %61 = sext i32 %60 to i64
  %62 = getelementptr inbounds [8 x ptr], ptr %59, i64 0, i64 %61
  %63 = load ptr, ptr %62, align 8, !tbaa !92
  %64 = load i32, ptr %11, align 4, !tbaa !25
  %65 = sext i32 %64 to i64
  %66 = getelementptr inbounds i32, ptr %63, i64 %65
  %67 = load i32, ptr %12, align 4, !tbaa !25
  %68 = sext i32 %67 to i64
  %69 = mul i64 %68, 4
  call void @llvm.memset.p0.i64(ptr align 4 %66, i8 0, i64 %69, i1 false)
  br label %70

70:                                               ; preds = %57, %40
  br label %71

71:                                               ; preds = %70
  %72 = load i32, ptr %10, align 4, !tbaa !25
  %73 = add nsw i32 %72, 1
  store i32 %73, ptr %10, align 4, !tbaa !25
  br label %34, !llvm.loop !231

74:                                               ; preds = %34
  %75 = load i32, ptr %8, align 4, !tbaa !25
  %76 = icmp sle i32 %75, 0
  br i1 %76, label %77, label %84

77:                                               ; preds = %74
  %78 = load i32, ptr %7, align 4, !tbaa !25
  %79 = icmp ne i32 %78, 0
  br i1 %79, label %80, label %84

80:                                               ; preds = %77
  %81 = load ptr, ptr %6, align 8, !tbaa !55
  %82 = getelementptr inbounds nuw %struct.DCAXllChSet, ptr %81, i32 0, i32 26
  %83 = getelementptr inbounds [8 x [8 x i32]], ptr %82, i64 0, i64 0
  call void @llvm.memset.p0.i64(ptr align 16 %83, i8 0, i64 256, i1 false)
  br label %84

84:                                               ; preds = %80, %77, %74
  %85 = load i32, ptr %8, align 4, !tbaa !25
  %86 = icmp slt i32 %85, 0
  br i1 %86, label %87, label %94

87:                                               ; preds = %84
  %88 = load ptr, ptr %9, align 8, !tbaa !124
  %89 = getelementptr inbounds nuw %struct.DCAXllBand, ptr %88, i32 0, i32 9
  %90 = getelementptr inbounds [8 x i32], ptr %89, i64 0, i64 0
  call void @llvm.memset.p0.i64(ptr align 8 %90, i8 0, i64 32, i1 false)
  %91 = load ptr, ptr %9, align 8, !tbaa !124
  %92 = getelementptr inbounds nuw %struct.DCAXllBand, ptr %91, i32 0, i32 10
  %93 = getelementptr inbounds [8 x i32], ptr %92, i64 0, i64 0
  call void @llvm.memset.p0.i64(ptr align 8 %93, i8 0, i64 32, i1 false)
  br label %94

94:                                               ; preds = %87, %84
  call void @llvm.lifetime.end.p0(i64 4, ptr %12) #10
  call void @llvm.lifetime.end.p0(i64 4, ptr %11) #10
  call void @llvm.lifetime.end.p0(i64 4, ptr %10) #10
  call void @llvm.lifetime.end.p0(i64 8, ptr %9) #10
  ret void
}