; Function Attrs: cold nofree norecurse nosync nounwind optsize memory(write, argmem: readwrite, inaccessiblemem: none) uwtable
define internal fastcc void @chs_clear_band_data(ptr noundef readonly captures(none) %0, ptr noundef captures(none) %1, i32 noundef %2, i32 noundef %3) unnamed_addr #8 {
  %5 = getelementptr inbounds nuw i8, ptr %1, i64 728
  %6 = sext i32 %2 to i64
  %7 = getelementptr inbounds [2 x %struct.DCAXllBand], ptr %5, i64 0, i64 %6
  %8 = icmp slt i32 %3, 0
  br i1 %8, label %9, label %12

9:                                                ; preds = %4
  %10 = getelementptr inbounds nuw i8, ptr %0, i64 64
  %11 = load i32, ptr %10, align 16, !tbaa !68
  br label %17

12:                                               ; preds = %4
  %13 = getelementptr inbounds nuw i8, ptr %0, i64 56
  %14 = load i32, ptr %13, align 8, !tbaa !159
  %15 = mul nsw i32 %14, %3
  %16 = sext i32 %15 to i64
  br label %17

17:                                               ; preds = %12, %9
  %.025 = phi i64 [ 0, %9 ], [ %16, %12 ]
  %.0 = phi i32 [ %11, %9 ], [ %14, %12 ]
  %18 = load i32, ptr %1, align 16, !tbaa !67
  %19 = icmp sgt i32 %18, 0
  br i1 %19, label %.lr.ph, label %._crit_edge

.lr.ph:                                           ; preds = %17
  %20 = getelementptr inbounds nuw i8, ptr %7, i64 704
  %21 = sext i32 %.0 to i64
  %22 = shl nsw i64 %21, 2
  %23 = getelementptr inbounds nuw i8, ptr %7, i64 636
  %24 = getelementptr inbounds nuw i8, ptr %7, i64 768
  br label %25

25:                                               ; preds = %.lr.ph, %34
  %indvars.iv = phi i64 [ 0, %.lr.ph ], [ %indvars.iv.next, %34 ]
  %26 = getelementptr inbounds nuw [8 x ptr], ptr %20, i64 0, i64 %indvars.iv
  %27 = load ptr, ptr %26, align 8, !tbaa !77
  %28 = getelementptr inbounds i32, ptr %27, i64 %.025
  tail call void @llvm.memset.p0.i64(ptr align 4 %28, i8 0, i64 %22, i1 false)
  %29 = load i32, ptr %23, align 4, !tbaa !180
  %.not = icmp eq i32 %29, 0
  br i1 %.not, label %34, label %30

30:                                               ; preds = %25
  %31 = getelementptr inbounds nuw [8 x ptr], ptr %24, i64 0, i64 %indvars.iv
  %32 = load ptr, ptr %31, align 8, !tbaa !77
  %33 = getelementptr inbounds i32, ptr %32, i64 %.025
  tail call void @llvm.memset.p0.i64(ptr align 4 %33, i8 0, i64 %22, i1 false)
  br label %34

34:                                               ; preds = %25, %30
  %indvars.iv.next = add nuw nsw i64 %indvars.iv, 1
  %35 = load i32, ptr %1, align 16, !tbaa !67
  %36 = sext i32 %35 to i64
  %37 = icmp slt i64 %indvars.iv.next, %36
  br i1 %37, label %25, label %._crit_edge, !llvm.loop !217

._crit_edge:                                      ; preds = %34, %17
  %38 = icmp slt i32 %3, 1
  %39 = icmp ne i32 %2, 0
  %or.cond = and i1 %39, %38
  br i1 %or.cond, label %40, label %42

40:                                               ; preds = %._crit_edge
  %41 = getelementptr inbounds nuw i8, ptr %1, i64 2560
  tail call void @llvm.memset.p0.i64(ptr noundef nonnull align 16 dereferenceable(256) %41, i8 0, i64 256, i1 false)
  br label %42

42:                                               ; preds = %40, %._crit_edge
  br i1 %8, label %43, label %45

43:                                               ; preds = %42
  %44 = getelementptr inbounds nuw i8, ptr %7, i64 640
  tail call void @llvm.memset.p0.i64(ptr noundef nonnull align 8 dereferenceable(64) %44, i8 0, i64 64, i1 false)
  br label %45

45:                                               ; preds = %43, %42
  ret void
}